target datalayout = "e-m:e-p270:32:32-p271:32:32-p272:64:64-i64:64-i128:128-f80:128-n8:16:32:64-S128"
target triple = "x86_64-pc-linux-gnu"

%struct.lua_State = type { %struct.GCRef, i8, i8, i8, i8, %struct.MRef, %struct.GCRef, ptr, ptr, %struct.MRef, %struct.MRef, %struct.GCRef, %struct.GCRef, ptr, i32 }
%struct.MRef = type { i64 }
%struct.GCRef = type { i64 }
%union.TValue = type { i64 }
%struct.global_State = type { ptr, ptr, %struct.GCState, %struct.GCstr, i8, i8, i8, i8, %struct.StrInternState, i32, %struct.GCRef, %struct.SBuf, %union.TValue, %union.TValue, %struct.Node, %union.TValue, %struct.GCupval, i32, i32, ptr, ptr, ptr, i32, i32, %struct.GCRef, %struct.MRef, %struct.MRef, %struct.PRNGState, [39 x %struct.GCRef] }
%struct.GCState = type { i64, i64, i8, i8, i8, i8, i32, %struct.GCRef, %struct.MRef, %struct.GCRef, %struct.GCRef, %struct.GCRef, %struct.GCRef, i64, i64, i32, i32, %struct.MRef }
%struct.GCstr = type { %struct.GCRef, i8, i8, i8, i8, i32, i32, i32 }
%struct.StrInternState = type { ptr, i32, i32, i32, i8, i8, i8, i8, i64 }
%struct.SBuf = type { ptr, ptr, ptr, %struct.MRef }
%struct.Node = type { %union.TValue, %union.TValue, %struct.MRef }
%struct.GCupval = type { %struct.GCRef, i8, i8, i8, i8, %union.anon, %struct.MRef, i32 }
%union.anon = type { %struct.anon.1 }
%struct.anon.1 = type { %struct.GCRef, %struct.GCRef }
%struct.PRNGState = type { [4 x i64] }

@.str.1 = private unnamed_addr constant [24 x i8] c"store to dead GC object\00", align 1

; Function Attrs: alwaysinline nounwind uwtable
define internal void @checklivetv(ptr noundef %0, ptr noundef %1, ptr noundef %2) #3 {
  %4 = alloca ptr, align 8
  %5 = alloca ptr, align 8
  %6 = alloca ptr, align 8
  store ptr %0, ptr %4, align 8, !tbaa !4
  store ptr %1, ptr %5, align 8, !tbaa !19
  store ptr %2, ptr %6, align 8, !tbaa !51
  ret void
}

; Function Attrs: alwaysinline nounwind uwtable
define internal void @setgcVraw(ptr noundef %0, ptr noundef %1, i32 noundef %2) #3 {
  %4 = alloca ptr, align 8
  %5 = alloca ptr, align 8
  %6 = alloca i32, align 4
  store ptr %0, ptr %4, align 8, !tbaa !19
  store ptr %1, ptr %5, align 8, !tbaa !49
  store i32 %2, ptr %6, align 4, !tbaa !9
  %7 = load ptr, ptr %5, align 8, !tbaa !49
  %8 = ptrtoint ptr %7 to i64
  %9 = load i32, ptr %6, align 4, !tbaa !9
  %10 = zext i32 %9 to i64
  %11 = shl i64 %10, 47
  %12 = or i64 %8, %11
  %13 = load ptr, ptr %4, align 8, !tbaa !19
  %14 = getelementptr inbounds nuw %struct.GCRef, ptr %13, i32 0, i32 0
  store i64 %12, ptr %14, align 8, !tbaa !18
  ret void
}

; Function Attrs: alwaysinline nounwind uwtable
define internal void @setgcV(ptr noundef %0, ptr noundef %1, ptr noundef %2, i32 noundef %3) #3 {
  %5 = alloca ptr, align 8
  %6 = alloca ptr, align 8
  %7 = alloca ptr, align 8
  %8 = alloca i32, align 4
  store ptr %0, ptr %5, align 8, !tbaa !4
  store ptr %1, ptr %6, align 8, !tbaa !19
  store ptr %2, ptr %7, align 8, !tbaa !49
  store i32 %3, ptr %8, align 4, !tbaa !9
  %9 = load ptr, ptr %6, align 8, !tbaa !19
  %10 = load ptr, ptr %7, align 8, !tbaa !49
  %11 = load i32, ptr %8, align 4, !tbaa !9
  call void @setgcVraw(ptr noundef %9, ptr noundef %10, i32 noundef %11)
  %12 = load ptr, ptr %5, align 8, !tbaa !4
  %13 = load ptr, ptr %6, align 8, !tbaa !19
  call void @checklivetv(ptr noundef %12, ptr noundef %13, ptr noundef @.str.1)
  ret void
}

; Function Attrs: alwaysinline nounwind uwtable
define internal void @lj_buf_reset(ptr noundef %0) #3 {
  %2 = alloca ptr, align 8
  store ptr %0, ptr %2, align 8, !tbaa !28
  %3 = load ptr, ptr %2, align 8, !tbaa !28
  %4 = getelementptr inbounds nuw %struct.SBuf, ptr %3, i32 0, i32 2
  %5 = load ptr, ptr %4, align 8, !tbaa !64
  %6 = load ptr, ptr %2, align 8, !tbaa !28
  %7 = getelementptr inbounds nuw %struct.SBuf, ptr %6, i32 0, i32 0
  store ptr %5, ptr %7, align 8, !tbaa !65
  ret void
}

; Function Attrs: alwaysinline nounwind uwtable
define internal void @setstrV(ptr noundef %0, ptr noundef %1, ptr noundef %2) #3 {
  %4 = alloca ptr, align 8
  %5 = alloca ptr, align 8
  %6 = alloca ptr, align 8
  store ptr %0, ptr %4, align 8, !tbaa !4
  store ptr %1, ptr %5, align 8, !tbaa !19
  store ptr %2, ptr %6, align 8, !tbaa !62
  %7 = load ptr, ptr %4, align 8, !tbaa !4
  %8 = load ptr, ptr %5, align 8, !tbaa !19
  %9 = load ptr, ptr %6, align 8, !tbaa !62
  call void @setgcV(ptr noundef %7, ptr noundef %8, ptr noundef %9, i32 noundef -5)
  ret void
}

; Function Attrs: alwaysinline nounwind uwtable
define internal ptr @lj_buf_str(ptr noundef %0, ptr noundef %1) #3 {
  %3 = alloca ptr, align 8
  %4 = alloca ptr, align 8
  store ptr %0, ptr %3, align 8, !tbaa !4
  store ptr %1, ptr %4, align 8, !tbaa !28
  %5 = load ptr, ptr %3, align 8, !tbaa !4
  %6 = load ptr, ptr %4, align 8, !tbaa !28
  %7 = getelementptr inbounds nuw %struct.SBuf, ptr %6, i32 0, i32 2
  %8 = load ptr, ptr %7, align 8, !tbaa !64
  %9 = load ptr, ptr %4, align 8, !tbaa !28
  %10 = getelementptr inbounds nuw %struct.SBuf, ptr %9, i32 0, i32 0
  %11 = load ptr, ptr %10, align 8, !tbaa !65
  %12 = load ptr, ptr %4, align 8, !tbaa !28
  %13 = getelementptr inbounds nuw %struct.SBuf, ptr %12, i32 0, i32 2
  %14 = load ptr, ptr %13, align 8, !tbaa !64
  %15 = ptrtoint ptr %11 to i64
  %16 = ptrtoint ptr %14 to i64
  %17 = sub i64 %15, %16
  %18 = trunc i64 %17 to i32
  %19 = zext i32 %18 to i64
  %20 = call ptr @lj_str_new(ptr noundef %5, ptr noundef %8, i64 noundef %19)
  ret ptr %20
}

; Function Attrs: alwaysinline nounwind uwtable
define internal ptr @lj_buf_tmp_(ptr noundef %0) #3 {
  %2 = alloca ptr, align 8
  %3 = alloca ptr, align 8
  store ptr %0, ptr %2, align 8, !tbaa !4
  call void @llvm.lifetime.start.p0(i64 8, ptr %3) #6
  %4 = load ptr, ptr %2, align 8, !tbaa !4
  %5 = getelementptr inbounds nuw %struct.lua_State, ptr %4, i32 0, i32 5
  %6 = getelementptr inbounds nuw %struct.MRef, ptr %5, i32 0, i32 0
  %7 = load i64, ptr %6, align 8, !tbaa !30
  %8 = inttoptr i64 %7 to ptr
  %9 = getelementptr inbounds nuw %struct.global_State, ptr %8, i32 0, i32 11
  store ptr %9, ptr %3, align 8, !tbaa !28
  %10 = load ptr, ptr %2, align 8, !tbaa !4
  %11 = ptrtoint ptr %10 to i64
  %12 = load ptr, ptr %3, align 8, !tbaa !28
  %13 = getelementptr inbounds nuw %struct.SBuf, ptr %12, i32 0, i32 3
  %14 = getelementptr inbounds nuw %struct.MRef, ptr %13, i32 0, i32 0
  store i64 %11, ptr %14, align 8, !tbaa !61
  %15 = load ptr, ptr %3, align 8, !tbaa !28
  call void @lj_buf_reset(ptr noundef %15)
  %16 = load ptr, ptr %3, align 8, !tbaa !28
  call void @llvm.lifetime.end.p0(i64 8, ptr %3) #6
  ret ptr %16
}

; Function Attrs: nounwind uwtable
define internal i32 @lj_cf_bit_tohex(ptr noundef %0) #0 {
  %2 = alloca ptr, align 8
  %3 = alloca i32, align 4
  %4 = alloca i32, align 4
  %5 = alloca i64, align 8
  %6 = alloca i32, align 4
  %7 = alloca ptr, align 8
  %8 = alloca i32, align 4
  store ptr %0, ptr %2, align 8, !tbaa !4
  call void @llvm.lifetime.start.p0(i64 4, ptr %3) #6
  store i32 0, ptr %3, align 4, !tbaa !9
  call void @llvm.lifetime.start.p0(i64 4, ptr %4) #6
  store i32 0, ptr %4, align 4, !tbaa !9
  call void @llvm.lifetime.start.p0(i64 8, ptr %5) #6
  %9 = load ptr, ptr %2, align 8, !tbaa !4
  %10 = call i64 @lj_carith_check64(ptr noundef %9, i32 noundef 1, ptr noundef %3)
  store i64 %10, ptr %5, align 8, !tbaa !17
  call void @llvm.lifetime.start.p0(i64 4, ptr %6) #6
  %11 = load ptr, ptr %2, align 8, !tbaa !4
  %12 = getelementptr inbounds nuw %struct.lua_State, ptr %11, i32 0, i32 7
  %13 = load ptr, ptr %12, align 8, !tbaa !11
  %14 = getelementptr inbounds %union.TValue, ptr %13, i64 1
  %15 = load ptr, ptr %2, align 8, !tbaa !4
  %16 = getelementptr inbounds nuw %struct.lua_State, ptr %15, i32 0, i32 8
  %17 = load ptr, ptr %16, align 8, !tbaa !20
  %18 = icmp uge ptr %14, %17
  br i1 %18, label %19, label %23

19:                                               ; preds = %1
  %20 = load i32, ptr %3, align 4, !tbaa !9
  %21 = icmp ne i32 %20, 0
  %22 = select i1 %21, i32 16, i32 8
  br label %27

23:                                               ; preds = %1
  %24 = load ptr, ptr %2, align 8, !tbaa !4
  %25 = call i64 @lj_carith_check64(ptr noundef %24, i32 noundef 2, ptr noundef %4)
  %26 = trunc i64 %25 to i32
  br label %27

27:                                               ; preds = %23, %19
  %28 = phi i32 [ %22, %19 ], [ %26, %23 ]
  store i32 %28, ptr %6, align 4, !tbaa !9
  call void @llvm.lifetime.start.p0(i64 8, ptr %7) #6
  %29 = load ptr, ptr %2, align 8, !tbaa !4
  %30 = call ptr @lj_buf_tmp_(ptr noundef %29)
  store ptr %30, ptr %7, align 8, !tbaa !28
  call void @llvm.lifetime.start.p0(i64 4, ptr %8) #6
  store i32 20, ptr %8, align 4, !tbaa !9
  %31 = load i32, ptr %6, align 4, !tbaa !9
  %32 = icmp slt i32 %31, 0
  br i1 %32, label %33, label %39

33:                                               ; preds = %27
  %34 = load i32, ptr %6, align 4, !tbaa !9
  %35 = xor i32 %34, -1
  %36 = add i32 %35, 1
  store i32 %36, ptr %6, align 4, !tbaa !9
  %37 = load i32, ptr %8, align 4, !tbaa !9
  %38 = or i32 %37, 8192
  store i32 %38, ptr %8, align 4, !tbaa !9
  br label %39

39:                                               ; preds = %33, %27
  %40 = load i32, ptr %6, align 4, !tbaa !9
  %41 = icmp ugt i32 %40, 254
  br i1 %41, label %42, label %43

42:                                               ; preds = %39
  store i32 254, ptr %6, align 4, !tbaa !9
  br label %43

43:                                               ; preds = %42, %39
  %44 = load i32, ptr %6, align 4, !tbaa !9
  %45 = add nsw i32 %44, 1
  %46 = and i32 %45, 255
  %47 = shl i32 %46, 24
  %48 = load i32, ptr %8, align 4, !tbaa !9
  %49 = or i32 %48, %47
  store i32 %49, ptr %8, align 4, !tbaa !9
  %50 = load i32, ptr %6, align 4, !tbaa !9
  %51 = icmp slt i32 %50, 16
  br i1 %51, label %52, label %60

52:                                               ; preds = %43
  %53 = load i32, ptr %6, align 4, !tbaa !9
  %54 = mul nsw i32 4, %53
  %55 = zext i32 %54 to i64
  %56 = shl i64 1, %55
  %57 = sub i64 %56, 1
  %58 = load i64, ptr %5, align 8, !tbaa !17
  %59 = and i64 %58, %57
  store i64 %59, ptr %5, align 8, !tbaa !17
  br label %60

60:                                               ; preds = %52, %43
  %61 = load ptr, ptr %7, align 8, !tbaa !28
  %62 = load i32, ptr %8, align 4, !tbaa !9
  %63 = load i64, ptr %5, align 8, !tbaa !17
  %64 = call ptr @lj_strfmt_putfxint(ptr noundef %61, i32 noundef %62, i64 noundef %63)
  store ptr %64, ptr %7, align 8, !tbaa !28
  %65 = load ptr, ptr %2, align 8, !tbaa !4
  %66 = load ptr, ptr %2, align 8, !tbaa !4
  %67 = getelementptr inbounds nuw %struct.lua_State, ptr %66, i32 0, i32 8
  %68 = load ptr, ptr %67, align 8, !tbaa !20
  %69 = getelementptr inbounds %union.TValue, ptr %68, i64 -1
  %70 = load ptr, ptr %2, align 8, !tbaa !4
  %71 = load ptr, ptr %7, align 8, !tbaa !28
  %72 = call ptr @lj_buf_str(ptr noundef %70, ptr noundef %71)
  call void @setstrV(ptr noundef %65, ptr noundef %69, ptr noundef %72)
  %73 = load ptr, ptr %2, align 8, !tbaa !4
  %74 = getelementptr inbounds nuw %struct.lua_State, ptr %73, i32 0, i32 5
  %75 = getelementptr inbounds nuw %struct.MRef, ptr %74, i32 0, i32 0
  %76 = load i64, ptr %75, align 8, !tbaa !30
  %77 = inttoptr i64 %76 to ptr
  %78 = getelementptr inbounds nuw %struct.global_State, ptr %77, i32 0, i32 2
  %79 = getelementptr inbounds nuw %struct.GCState, ptr %78, i32 0, i32 0
  %80 = load i64, ptr %79, align 8, !tbaa !31
  %81 = load ptr, ptr %2, align 8, !tbaa !4
  %82 = getelementptr inbounds nuw %struct.lua_State, ptr %81, i32 0, i32 5
  %83 = getelementptr inbounds nuw %struct.MRef, ptr %82, i32 0, i32 0
  %84 = load i64, ptr %83, align 8, !tbaa !30
  %85 = inttoptr i64 %84 to ptr
  %86 = getelementptr inbounds nuw %struct.global_State, ptr %85, i32 0, i32 2
  %87 = getelementptr inbounds nuw %struct.GCState, ptr %86, i32 0, i32 1
  %88 = load i64, ptr %87, align 8, !tbaa !42
  %89 = icmp uge i64 %80, %88
  %90 = xor i1 %89, true
  %91 = xor i1 %90, true
  %92 = zext i1 %91 to i32
  %93 = sext i32 %92 to i64
  %94 = call i64 @llvm.expect.i64(i64 %93, i64 0)
  %95 = icmp ne i64 %94, 0
  br i1 %95, label %96, label %99

96:                                               ; preds = %60
  %97 = load ptr, ptr %2, align 8, !tbaa !4
  %98 = call i32 @lj_gc_step(ptr noundef %97)
  br label %99

99:                                               ; preds = %96, %60
  call void @llvm.lifetime.end.p0(i64 4, ptr %8) #6
  call void @llvm.lifetime.end.p0(i64 8, ptr %7) #6
  call void @llvm.lifetime.end.p0(i64 4, ptr %6) #6
  call void @llvm.lifetime.end.p0(i64 8, ptr %5) #6
  call void @llvm.lifetime.end.p0(i64 4, ptr %4) #6
  call void @llvm.lifetime.end.p0(i64 4, ptr %3) #6
  ret i32 1
}