; Function Attrs: nounwind uwtable
define internal noundef i32 @lj_cf_bit_tohex(ptr noundef %0) #0 {
  %2 = alloca i32, align 4
  %3 = alloca i32, align 4
  call void @llvm.lifetime.start.p0(i64 4, ptr nonnull %2) #5
  store i32 0, ptr %2, align 4, !tbaa !4
  call void @llvm.lifetime.start.p0(i64 4, ptr nonnull %3) #5
  store i32 0, ptr %3, align 4, !tbaa !4
  %4 = call i64 @lj_carith_check64(ptr noundef %0, i32 noundef 1, ptr noundef nonnull %2) #5
  %5 = getelementptr inbounds nuw i8, ptr %0, i64 32
  %6 = load ptr, ptr %5, align 8, !tbaa !8
  %7 = getelementptr inbounds nuw i8, ptr %6, i64 8
  %8 = getelementptr inbounds nuw i8, ptr %0, i64 40
  %9 = load ptr, ptr %8, align 8, !tbaa !21
  %.not = icmp ult ptr %7, %9
  br i1 %.not, label %13, label %10

10:                                               ; preds = %1
  %11 = load i32, ptr %2, align 4, !tbaa !4
  %.not26 = icmp eq i32 %11, 0
  %12 = select i1 %.not26, i32 8, i32 16
  br label %16

13:                                               ; preds = %1
  %14 = call i64 @lj_carith_check64(ptr noundef nonnull %0, i32 noundef 2, ptr noundef nonnull %3) #5
  %15 = trunc i64 %14 to i32
  br label %16

16:                                               ; preds = %13, %10
  %17 = phi i32 [ %12, %10 ], [ %15, %13 ]
  %18 = getelementptr inbounds nuw i8, ptr %0, i64 16
  %19 = load i64, ptr %18, align 8, !tbaa !24
  %20 = inttoptr i64 %19 to ptr
  %21 = getelementptr inbounds nuw i8, ptr %20, i64 200
  %22 = ptrtoint ptr %0 to i64
  %23 = getelementptr inbounds nuw i8, ptr %20, i64 224
  store i64 %22, ptr %23, align 8, !tbaa !47
  %24 = getelementptr inbounds nuw i8, ptr %20, i64 216
  %25 = load ptr, ptr %24, align 8, !tbaa !48
  store ptr %25, ptr %21, align 8, !tbaa !49
  %26 = icmp slt i32 %17, 0
  %spec.select = call i32 @llvm.abs.i32(i32 %17, i1 false)
  %spec.select28 = select i1 %26, i32 8212, i32 20
  %spec.store.select = call i32 @llvm.umin.i32(i32 %spec.select, i32 254)
  %27 = shl nuw i32 %spec.store.select, 24
  %28 = add nuw i32 %27, 16777216
  %29 = or disjoint i32 %28, %spec.select28
  %30 = icmp ult i32 %spec.select, 16
  %31 = shl nuw nsw i32 %spec.store.select, 2
  %32 = zext nneg i32 %31 to i64
  %notmask = shl nsw i64 -1, %32
  %33 = xor i64 %notmask, -1
  %34 = select i1 %30, i64 %33, i64 -1
  %.024 = and i64 %34, %4
  %35 = call ptr @lj_strfmt_putfxint(ptr noundef nonnull %21, i32 noundef %29, i64 noundef %.024) #5
  %36 = load ptr, ptr %8, align 8, !tbaa !21
  %37 = getelementptr inbounds i8, ptr %36, i64 -8
  %38 = getelementptr inbounds nuw i8, ptr %35, i64 16
  %39 = load ptr, ptr %38, align 8, !tbaa !48
  %40 = load ptr, ptr %35, align 8, !tbaa !49
  %41 = ptrtoint ptr %40 to i64
  %42 = ptrtoint ptr %39 to i64
  %43 = sub i64 %41, %42
  %44 = and i64 %43, 4294967295
  %45 = call ptr @lj_str_new(ptr noundef nonnull %0, ptr noundef %39, i64 noundef %44) #5
  %46 = ptrtoint ptr %45 to i64
  %47 = or i64 %46, -703687441776640
  store i64 %47, ptr %37, align 8, !tbaa !15
  %48 = load i64, ptr %18, align 8, !tbaa !24
  %49 = inttoptr i64 %48 to ptr
  %50 = getelementptr inbounds nuw i8, ptr %49, i64 16
  %51 = load i64, ptr %50, align 8, !tbaa !50
  %52 = getelementptr inbounds nuw i8, ptr %49, i64 24
  %53 = load i64, ptr %52, align 8, !tbaa !51
  %.not27 = icmp ult i64 %51, %53
  br i1 %.not27, label %56, label %54, !prof !52

54:                                               ; preds = %16
  %55 = call i32 @lj_gc_step(ptr noundef nonnull %0) #5
  br label %56

56:                                               ; preds = %54, %16
  call void @llvm.lifetime.end.p0(i64 4, ptr nonnull %3) #5
  call void @llvm.lifetime.end.p0(i64 4, ptr nonnull %2) #5
  ret i32 1
}